; Function Attrs: mustprogress nounwind willreturn uwtable
define void @Cec3_ManSimAlloc(ptr noundef captures(none) initializes((816, 820)) %0, i32 noundef %1) local_unnamed_addr #8 {
  %3 = getelementptr inbounds nuw i8, ptr %0, i64 832
  %4 = load ptr, ptr %3, align 8, !tbaa !101
  %5 = icmp eq ptr %4, null
  br i1 %5, label %Vec_WrdFreeP.exit, label %6

6:                                                ; preds = %2
  %7 = getelementptr inbounds nuw i8, ptr %4, i64 8
  %8 = load ptr, ptr %7, align 8, !tbaa !60
  %.not.i = icmp eq ptr %8, null
  br i1 %.not.i, label %11, label %.thread.i

.thread.i:                                        ; preds = %6
  tail call void @free(ptr noundef nonnull %8) #22
  %9 = load ptr, ptr %3, align 8, !tbaa !101
  %10 = getelementptr inbounds nuw i8, ptr %9, i64 8
  store ptr null, ptr %10, align 8, !tbaa !60
  br label %11

11:                                               ; preds = %.thread.i, %6
  %12 = phi ptr [ %9, %.thread.i ], [ %4, %6 ]
  tail call void @free(ptr noundef nonnull %12) #22
  store ptr null, ptr %3, align 8, !tbaa !101
  br label %Vec_WrdFreeP.exit

Vec_WrdFreeP.exit:                                ; preds = %2, %11
  %13 = getelementptr inbounds nuw i8, ptr %0, i64 848
  %14 = load ptr, ptr %13, align 8, !tbaa !101
  %15 = icmp eq ptr %14, null
  br i1 %15, label %Vec_WrdFreeP.exit12, label %16

16:                                               ; preds = %Vec_WrdFreeP.exit
  %17 = getelementptr inbounds nuw i8, ptr %14, i64 8
  %18 = load ptr, ptr %17, align 8, !tbaa !60
  %.not.i10 = icmp eq ptr %18, null
  br i1 %.not.i10, label %21, label %.thread.i11

.thread.i11:                                      ; preds = %16
  tail call void @free(ptr noundef nonnull %18) #22
  %19 = load ptr, ptr %13, align 8, !tbaa !101
  %20 = getelementptr inbounds nuw i8, ptr %19, i64 8
  store ptr null, ptr %20, align 8, !tbaa !60
  br label %21

21:                                               ; preds = %.thread.i11, %16
  %22 = phi ptr [ %19, %.thread.i11 ], [ %14, %16 ]
  tail call void @free(ptr noundef nonnull %22) #22
  store ptr null, ptr %13, align 8, !tbaa !101
  br label %Vec_WrdFreeP.exit12

Vec_WrdFreeP.exit12:                              ; preds = %Vec_WrdFreeP.exit, %21
  %23 = getelementptr i8, ptr %0, i64 24
  %.val9 = load i32, ptr %23, align 8, !tbaa !87
  %24 = mul nsw i32 %.val9, %1
  %25 = tail call noalias dereferenceable_or_null(16) ptr @malloc(i64 noundef 16) #23
  %26 = add i32 %24, -1
  %or.cond.i.i = icmp ult i32 %26, 15
  %spec.store.select.i.i = select i1 %or.cond.i.i, i32 16, i32 %24
  store i32 %spec.store.select.i.i, ptr %25, align 8, !tbaa !80
  %.not.i.i = icmp eq i32 %spec.store.select.i.i, 0
  br i1 %.not.i.i, label %Vec_WrdStart.exit, label %27

27:                                               ; preds = %Vec_WrdFreeP.exit12
  %28 = sext i32 %spec.store.select.i.i to i64
  %29 = shl nsw i64 %28, 3
  %30 = tail call noalias ptr @malloc(i64 noundef %29) #23
  br label %Vec_WrdStart.exit

Vec_WrdStart.exit:                                ; preds = %Vec_WrdFreeP.exit12, %27
  %31 = phi ptr [ %30, %27 ], [ null, %Vec_WrdFreeP.exit12 ]
  %32 = getelementptr inbounds nuw i8, ptr %25, i64 4
  %33 = getelementptr inbounds nuw i8, ptr %25, i64 8
  store ptr %31, ptr %33, align 8, !tbaa !60
  store i32 %24, ptr %32, align 4, !tbaa !79
  %34 = sext i32 %24 to i64
  %35 = shl nsw i64 %34, 3
  tail call void @llvm.memset.p0.i64(ptr align 8 %31, i8 0, i64 %35, i1 false)
  store ptr %25, ptr %3, align 8, !tbaa !59
  %36 = getelementptr i8, ptr %0, i64 64
  %.val = load ptr, ptr %36, align 8, !tbaa !56
  %37 = getelementptr i8, ptr %.val, i64 4
  %.val.val = load i32, ptr %37, align 4, !tbaa !57
  %38 = shl i32 %1, 2
  %39 = mul i32 %38, %.val.val
  %40 = tail call noalias dereferenceable_or_null(16) ptr @malloc(i64 noundef 16) #23
  %41 = add i32 %39, -1
  %or.cond.i = icmp ult i32 %41, 15
  %spec.store.select.i = select i1 %or.cond.i, i32 16, i32 %39
  %42 = getelementptr inbounds nuw i8, ptr %40, i64 4
  store i32 0, ptr %42, align 4, !tbaa !79
  store i32 %spec.store.select.i, ptr %40, align 8, !tbaa !80
  %.not.i13 = icmp eq i32 %spec.store.select.i, 0
  br i1 %.not.i13, label %Vec_WrdAlloc.exit, label %43

43:                                               ; preds = %Vec_WrdStart.exit
  %44 = sext i32 %spec.store.select.i to i64
  %45 = shl nsw i64 %44, 3
  %46 = tail call noalias ptr @malloc(i64 noundef %45) #23
  br label %Vec_WrdAlloc.exit

Vec_WrdAlloc.exit:                                ; preds = %Vec_WrdStart.exit, %43
  %47 = phi ptr [ %46, %43 ], [ null, %Vec_WrdStart.exit ]
  %48 = getelementptr inbounds nuw i8, ptr %40, i64 8
  store ptr %47, ptr %48, align 8, !tbaa !60
  store ptr %40, ptr %13, align 8, !tbaa !78
  %49 = getelementptr inbounds nuw i8, ptr %0, i64 816
  store i32 %1, ptr %49, align 8, !tbaa !58
  ret void
}